target datalayout = "e-m:e-p270:32:32-p271:32:32-p272:64:64-i64:64-i128:128-f80:128-n8:16:32:64-S128"
target triple = "x86_64-pc-linux-gnu"

@.str.14 = private unnamed_addr constant [3 x i8] c" ,\00", align 1
@.str.18 = private unnamed_addr constant [2 x i8] c"*\00", align 1

; Function Attrs: nounwind uwtable
define internal i32 @match_host_pattern(ptr noundef %0, ptr noundef %1) #0 {
  %3 = alloca i32, align 4
  %4 = alloca ptr, align 8
  %5 = alloca ptr, align 8
  %6 = alloca i32, align 4
  %7 = alloca i32, align 4
  %8 = alloca i32, align 4
  store ptr %0, ptr %4, align 8, !tbaa !40
  store ptr %1, ptr %5, align 8, !tbaa !40
  call void @llvm.lifetime.start.p0(i64 4, ptr %6) #10
  call void @llvm.lifetime.start.p0(i64 4, ptr %7) #10
  %9 = load ptr, ptr %4, align 8, !tbaa !40
  %10 = call i32 @strcmp(ptr noundef %9, ptr noundef @.str.18) #13
  %11 = icmp ne i32 %10, 0
  br i1 %11, label %13, label %12

12:                                               ; preds = %2
  store i32 1, ptr %3, align 4
  store i32 1, ptr %8, align 4
  br label %71

13:                                               ; preds = %2
  %14 = load ptr, ptr %4, align 8, !tbaa !40
  %15 = getelementptr inbounds i8, ptr %14, i64 0
  %16 = load i8, ptr %15, align 1, !tbaa !25
  %17 = sext i8 %16 to i32
  %18 = icmp eq i32 %17, 42
  br i1 %18, label %19, label %22

19:                                               ; preds = %13
  %20 = load ptr, ptr %4, align 8, !tbaa !40
  %21 = getelementptr inbounds nuw i8, ptr %20, i32 1
  store ptr %21, ptr %4, align 8, !tbaa !40
  br label %22

22:                                               ; preds = %19, %13
  %23 = load ptr, ptr %4, align 8, !tbaa !40
  %24 = getelementptr inbounds i8, ptr %23, i64 0
  %25 = load i8, ptr %24, align 1, !tbaa !25
  %26 = sext i8 %25 to i32
  %27 = icmp eq i32 %26, 46
  br i1 %27, label %28, label %31

28:                                               ; preds = %22
  %29 = load ptr, ptr %4, align 8, !tbaa !40
  %30 = getelementptr inbounds nuw i8, ptr %29, i32 1
  store ptr %30, ptr %4, align 8, !tbaa !40
  br label %31

31:                                               ; preds = %28, %22
  %32 = load ptr, ptr %4, align 8, !tbaa !40
  %33 = call i64 @strlen(ptr noundef %32) #13
  %34 = trunc i64 %33 to i32
  store i32 %34, ptr %6, align 4, !tbaa !4
  %35 = load ptr, ptr %5, align 8, !tbaa !40
  %36 = call i64 @strlen(ptr noundef %35) #13
  %37 = trunc i64 %36 to i32
  store i32 %37, ptr %7, align 4, !tbaa !4
  %38 = load i32, ptr %6, align 4, !tbaa !4
  %39 = load i32, ptr %7, align 4, !tbaa !4
  %40 = icmp sgt i32 %38, %39
  br i1 %40, label %41, label %42

41:                                               ; preds = %31
  store i32 0, ptr %3, align 4
  store i32 1, ptr %8, align 4
  br label %71

42:                                               ; preds = %31
  %43 = load ptr, ptr %4, align 8, !tbaa !40
  %44 = load ptr, ptr %5, align 8, !tbaa !40
  %45 = load i32, ptr %7, align 4, !tbaa !4
  %46 = load i32, ptr %6, align 4, !tbaa !4
  %47 = sub nsw i32 %45, %46
  %48 = sext i32 %47 to i64
  %49 = getelementptr inbounds i8, ptr %44, i64 %48
  %50 = call i32 @strcmp(ptr noundef %43, ptr noundef %49) #13
  %51 = icmp ne i32 %50, 0
  br i1 %51, label %70, label %52

52:                                               ; preds = %42
  %53 = load i32, ptr %7, align 4, !tbaa !4
  %54 = load i32, ptr %6, align 4, !tbaa !4
  %55 = icmp eq i32 %53, %54
  br i1 %55, label %56, label %57

56:                                               ; preds = %52
  store i32 1, ptr %3, align 4
  store i32 1, ptr %8, align 4
  br label %71

57:                                               ; preds = %52
  %58 = load ptr, ptr %5, align 8, !tbaa !40
  %59 = load i32, ptr %7, align 4, !tbaa !4
  %60 = load i32, ptr %6, align 4, !tbaa !4
  %61 = sub nsw i32 %59, %60
  %62 = sub nsw i32 %61, 1
  %63 = sext i32 %62 to i64
  %64 = getelementptr inbounds i8, ptr %58, i64 %63
  %65 = load i8, ptr %64, align 1, !tbaa !25
  %66 = sext i8 %65 to i32
  %67 = icmp eq i32 %66, 46
  br i1 %67, label %68, label %69

68:                                               ; preds = %57
  store i32 1, ptr %3, align 4
  store i32 1, ptr %8, align 4
  br label %71

69:                                               ; preds = %57
  br label %70

70:                                               ; preds = %69, %42
  store i32 0, ptr %3, align 4
  store i32 1, ptr %8, align 4
  br label %71

71:                                               ; preds = %70, %68, %56, %41, %12
  call void @llvm.lifetime.end.p0(i64 4, ptr %7) #10
  call void @llvm.lifetime.end.p0(i64 4, ptr %6) #10
  %72 = load i32, ptr %3, align 4
  ret i32 %72
}

; Function Attrs: nounwind uwtable
define i32 @ff_http_match_no_proxy(ptr noundef %0, ptr noundef %1) #0 {
  %3 = alloca i32, align 4
  %4 = alloca ptr, align 8
  %5 = alloca ptr, align 8
  %6 = alloca ptr, align 8
  %7 = alloca ptr, align 8
  %8 = alloca i32, align 4
  %9 = alloca i32, align 4
  %10 = alloca ptr, align 8
  %11 = alloca ptr, align 8
  store ptr %0, ptr %4, align 8, !tbaa !40
  store ptr %1, ptr %5, align 8, !tbaa !40
  call void @llvm.lifetime.start.p0(i64 8, ptr %6) #10
  call void @llvm.lifetime.start.p0(i64 8, ptr %7) #10
  call void @llvm.lifetime.start.p0(i64 4, ptr %8) #10
  store i32 0, ptr %8, align 4, !tbaa !4
  %12 = load ptr, ptr %4, align 8, !tbaa !40
  %13 = icmp ne ptr %12, null
  br i1 %13, label %15, label %14

14:                                               ; preds = %2
  store i32 0, ptr %3, align 4
  store i32 1, ptr %9, align 4
  br label %60

15:                                               ; preds = %2
  %16 = load ptr, ptr %5, align 8, !tbaa !40
  %17 = icmp ne ptr %16, null
  br i1 %17, label %19, label %18

18:                                               ; preds = %15
  store i32 0, ptr %3, align 4
  store i32 1, ptr %9, align 4
  br label %60

19:                                               ; preds = %15
  %20 = load ptr, ptr %4, align 8, !tbaa !40
  %21 = call noalias ptr @av_strdup(ptr noundef %20)
  store ptr %21, ptr %6, align 8, !tbaa !40
  %22 = load ptr, ptr %6, align 8, !tbaa !40
  %23 = icmp ne ptr %22, null
  br i1 %23, label %25, label %24

24:                                               ; preds = %19
  store i32 0, ptr %3, align 4
  store i32 1, ptr %9, align 4
  br label %60

25:                                               ; preds = %19
  %26 = load ptr, ptr %6, align 8, !tbaa !40
  store ptr %26, ptr %7, align 8, !tbaa !40
  br label %27

27:                                               ; preds = %56, %25
  %28 = load ptr, ptr %7, align 8, !tbaa !40
  %29 = icmp ne ptr %28, null
  br i1 %29, label %30, label %57

30:                                               ; preds = %27
  call void @llvm.lifetime.start.p0(i64 8, ptr %10) #10
  call void @llvm.lifetime.start.p0(i64 8, ptr %11) #10
  store ptr null, ptr %11, align 8, !tbaa !40
  %31 = load ptr, ptr %7, align 8, !tbaa !40
  %32 = call i64 @strspn(ptr noundef %31, ptr noundef @.str.14) #13
  %33 = load ptr, ptr %7, align 8, !tbaa !40
  %34 = getelementptr inbounds nuw i8, ptr %33, i64 %32
  store ptr %34, ptr %7, align 8, !tbaa !40
  %35 = load ptr, ptr %7, align 8, !tbaa !40
  %36 = load ptr, ptr %7, align 8, !tbaa !40
  %37 = call i64 @strcspn(ptr noundef %36, ptr noundef @.str.14) #13
  %38 = getelementptr inbounds nuw i8, ptr %35, i64 %37
  store ptr %38, ptr %10, align 8, !tbaa !40
  %39 = load ptr, ptr %10, align 8, !tbaa !40
  %40 = load i8, ptr %39, align 1, !tbaa !25
  %41 = icmp ne i8 %40, 0
  br i1 %41, label %42, label %46

42:                                               ; preds = %30
  %43 = load ptr, ptr %10, align 8, !tbaa !40
  %44 = getelementptr inbounds i8, ptr %43, i64 1
  store ptr %44, ptr %11, align 8, !tbaa !40
  %45 = load ptr, ptr %10, align 8, !tbaa !40
  store i8 0, ptr %45, align 1, !tbaa !25
  br label %46

46:                                               ; preds = %42, %30
  %47 = load ptr, ptr %7, align 8, !tbaa !40
  %48 = load ptr, ptr %5, align 8, !tbaa !40
  %49 = call i32 @match_host_pattern(ptr noundef %47, ptr noundef %48)
  %50 = icmp ne i32 %49, 0
  br i1 %50, label %51, label %52

51:                                               ; preds = %46
  store i32 1, ptr %8, align 4, !tbaa !4
  store i32 3, ptr %9, align 4
  br label %54

52:                                               ; preds = %46
  %53 = load ptr, ptr %11, align 8, !tbaa !40
  store ptr %53, ptr %7, align 8, !tbaa !40
  store i32 0, ptr %9, align 4
  br label %54

54:                                               ; preds = %52, %51
  call void @llvm.lifetime.end.p0(i64 8, ptr %11) #10
  call void @llvm.lifetime.end.p0(i64 8, ptr %10) #10
  %55 = load i32, ptr %9, align 4
  switch i32 %55, label %62 [
    i32 0, label %56
    i32 3, label %57
  ]

56:                                               ; preds = %54
  br label %27, !llvm.loop !69

57:                                               ; preds = %54, %27
  %58 = load ptr, ptr %6, align 8, !tbaa !40
  call void @av_free(ptr noundef %58)
  %59 = load i32, ptr %8, align 4, !tbaa !4
  store i32 %59, ptr %3, align 4
  store i32 1, ptr %9, align 4
  br label %60

60:                                               ; preds = %57, %24, %18, %14
  call void @llvm.lifetime.end.p0(i64 4, ptr %8) #10
  call void @llvm.lifetime.end.p0(i64 8, ptr %7) #10
  call void @llvm.lifetime.end.p0(i64 8, ptr %6) #10
  %61 = load i32, ptr %3, align 4
  ret i32 %61

62:                                               ; preds = %54
  unreachable
}